ccollections
defaultdict
p0
(c__builtin__
list
p1
tp2
Rp3
(S'RUS120521'
p4
S'M1'
p5
tp6
(lp7
I80
aI41
aI66
aI2
aI43
aI84
aI32
aI75
aI81
aI64
aI86
aI50
aI67
aI44
aI40
aI73
aI0
aI6
aI39
aI68
aI65
aI37
aI33
aI77
aI48
aI69
aI76
aI83
aI79
aI36
aI4
aI82
aI52
aI35
aI71
aI34
aI70
aI46
aI38
aI87
aI78
aI85
aI72
aI42
aI74
aI47
as(S'SPK120924'
p8
S'M1'
p9
tp10
(lp11
I74
aI1
aI76
aI4
aI82
aI66
aI87
aI41
aI50
aI43
aI75
aI81
aI6
aI72
aI36
aI33
aI85
aI38
aI32
aI34
aI44
aI48
aI35
aI79
aI67
aI69
aI39
aI40
aI83
aI86
aI77
aI65
aI2
aI46
aI52
aI84
aI42
aI71
aI37
aI3
aI73
aI70
aI47
aI0
aI68
aI64
aI80
aI78
as(S'SPK120918'
p12
S'M1'
p13
tp14
(lp15
I78
aI46
aI44
aI84
aI68
aI72
aI77
aI36
aI37
aI48
aI79
aI34
aI3
aI43
aI83
aI82
aI65
aI52
aI80
aI32
aI75
aI38
aI71
aI1
aI33
aI64
aI85
aI69
aI42
aI0
aI50
aI73
aI74
aI81
aI39
aI41
aI66
aI76
aI67
aI4
aI40
aI6
aI70
aI87
aI47
aI35
aI2
aI86
as(S'SPK120918'
p16
S'PMv'
p17
tp18
(lp19
I72
aI42
aI61
aI22
aI70
aI16
aI32
aI38
aI75
aI9
aI80
aI6
aI67
aI35
aI78
aI21
aI44
aI20
aI73
aI49
aI74
aI33
aI29
aI50
aI88
aI85
aI51
aI89
aI26
aI41
aI66
aI95
aI76
aI30
aI81
aI82
aI54
aI4
aI13
aI87
aI8
aI45
aI46
aI55
aI24
aI0
aI14
aI18
aI34
aI91
aI83
aI47
aI93
aI48
aI43
aI68
aI11
aI56
aI52
aI94
aI71
aI12
aI59
aI28
aI62
aI36
aI65
aI90
aI92
aI77
aI63
aI1
aI79
aI17
aI58
aI7
aI40
aI84
aI25
aI69
aI19
aI37
aI3
aI57
aI64
aI15
aI60
aI23
aI5
aI2
aI31
aI27
aI10
aI53
as(S'RUS120518'
p20
S'PMv'
p21
tp22
(lp23
I32
aI36
aI85
aI55
aI68
aI18
aI75
aI37
aI54
aI76
aI52
aI19
aI15
aI93
aI33
aI30
aI0
aI91
aI22
aI2
aI44
aI48
aI80
aI87
aI25
aI58
aI38
aI94
aI4
aI59
aI57
aI62
aI81
aI73
aI79
aI9
aI64
aI72
aI7
aI12
aI60
aI71
aI74
aI49
aI45
aI41
aI70
aI78
aI46
aI16
aI66
aI1
aI26
aI20
aI61
aI82
aI3
aI43
aI35
aI27
aI77
aI10
aI40
aI31
aI89
aI5
aI88
aI6
aI50
aI11
aI24
aI83
aI67
aI23
aI53
aI92
aI51
aI21
aI8
aI29
aI47
aI34
aI13
aI84
aI90
aI63
aI65
aI28
aI14
aI56
aI86
aI42
as(S'RUS120518'
p24
S'M1'
p25
tp26
(lp27
I33
aI64
aI75
aI37
aI73
aI35
aI32
aI68
aI76
aI43
aI83
aI3
aI44
aI79
aI0
aI38
aI78
aI42
aI70
aI74
aI69
aI46
aI67
aI2
aI72
aI65
aI77
aI82
aI40
aI47
aI87
aI80
aI39
aI81
aI4
aI52
aI71
aI84
aI34
aI50
aI86
aI36
aI6
aI66
aI41
aI85
aI48
as(S'SPK120925'
p28
S'M1'
p29
tp30
(lp31
I68
aI37
aI1
aI46
aI74
aI48
aI86
aI79
aI64
aI6
aI39
aI87
aI77
aI66
aI36
aI81
aI50
aI80
aI40
aI4
aI67
aI41
aI78
aI35
aI42
aI85
aI32
aI33
aI43
aI76
aI65
aI75
aI70
aI71
aI73
aI84
aI44
aI38
aI52
aI3
aI2
aI69
aI0
aI47
aI82
aI83
aI72
aI34
as(S'RUS120521'
p32
S'PMd'
p33
tp34
(lp35
I62
aI19
aI55
aI11
aI51
aI24
aI89
aI20
aI8
aI23
aI25
aI60
aI58
aI57
aI53
aI45
aI14
aI22
aI30
aI92
aI94
aI59
aI31
aI61
aI12
aI93
aI27
aI90
aI18
aI56
aI91
aI16
aI28
aI95
aI54
aI29
aI88
aI49
as(S'SPK120924'
p36
S'PMd'
p37
tp38
(lp39
I14
aI49
aI11
aI13
aI28
aI61
aI51
aI27
aI26
aI56
aI92
aI62
aI95
aI88
aI30
aI57
aI18
aI31
aI89
aI53
aI91
aI16
aI93
aI94
aI55
aI90
aI63
aI20
aI24
aI19
aI7
aI54
aI60
aI21
aI58
aI22
aI23
aI10
aI5
aI8
aI25
aI45
aI17
aI12
aI29
aI9
aI59
aI15
as(S'RUS120523'
p40
S'M1'
p41
tp42
(lp43
I84
aI67
aI2
aI80
aI72
aI33
aI86
aI50
aI48
aI76
aI87
aI40
aI36
aI32
aI83
aI47
aI42
aI38
aI65
aI43
aI1
aI0
aI4
aI35
aI82
aI70
aI75
aI69
aI6
aI39
aI71
aI46
aI3
aI37
aI34
aI81
aI79
aI73
aI64
aI77
aI85
aI66
aI74
aI41
aI44
aI52
aI68
aI78
as(S'RUS120523'
p44
S'PMv'
p45
tp46
(lp47
I83
aI6
aI45
aI58
aI88
aI32
aI79
aI64
aI84
aI57
aI67
aI78
aI35
aI81
aI94
aI59
aI85
aI82
aI29
aI42
aI92
aI34
aI13
aI73
aI46
aI3
aI8
aI5
aI15
aI28
aI62
aI23
aI70
aI31
aI43
aI41
aI19
aI12
aI40
aI4
aI47
aI38
aI53
aI25
aI54
aI80
aI9
aI76
aI87
aI48
aI36
aI30
aI0
aI93
aI50
aI26
aI60
aI37
aI61
aI66
aI56
aI10
aI14
aI20
aI55
aI89
aI86
aI27
aI77
aI22
aI52
aI18
aI33
aI68
aI63
aI7
aI49
aI51
aI1
aI71
aI44
aI75
aI74
aI24
aI11
aI2
aI91
aI90
aI72
aI21
aI16
aI65
as(S'SPK120918'
p48
S'PMd'
p49
tp50
(lp51
I20
aI24
aI92
aI90
aI62
aI51
aI30
aI55
aI22
aI31
aI11
aI60
aI29
aI93
aI49
aI23
aI88
aI54
aI27
aI13
aI61
aI10
aI19
aI15
aI56
aI12
aI25
aI59
aI57
aI16
aI14
aI63
aI5
aI21
aI45
aI26
aI94
aI17
aI9
aI58
aI18
aI89
aI53
aI95
aI28
aI7
aI91
aI8
as(S'SPK120925'
p52
S'PMd'
p53
tp54
(lp55
I25
aI57
aI12
aI58
aI31
aI11
aI14
aI49
aI23
aI28
aI93
aI27
aI13
aI24
aI61
aI92
aI5
aI21
aI63
aI10
aI22
aI17
aI94
aI56
aI62
aI8
aI91
aI88
aI54
aI60
aI55
aI45
aI51
aI19
aI95
aI30
aI90
aI26
aI53
aI59
aI29
aI16
aI9
aI15
aI89
aI7
aI20
aI18
as(S'RUS120521'
p56
S'PMv'
p57
tp58
(lp59
I56
aI23
aI80
aI15
aI90
aI50
aI68
aI34
aI72
aI82
aI71
aI60
aI76
aI21
aI0
aI45
aI10
aI74
aI59
aI24
aI36
aI85
aI75
aI14
aI43
aI6
aI48
aI52
aI81
aI54
aI32
aI30
aI73
aI26
aI64
aI92
aI40
aI47
aI8
aI9
aI91
aI27
aI88
aI61
aI41
aI49
aI33
aI38
aI79
aI22
aI31
aI35
aI57
aI4
aI83
aI65
aI7
aI70
aI93
aI5
aI94
aI53
aI28
aI89
aI29
aI87
aI13
aI51
aI18
aI11
aI1
aI42
aI77
aI25
aI12
aI66
aI78
aI62
aI20
aI67
aI2
aI46
aI63
aI3
aI55
aI84
aI58
aI86
aI16
aI44
aI19
aI37
as(S'SPK120924'
p60
S'PMv'
p61
tp62
(lp63
I54
aI28
aI63
aI4
aI40
aI86
aI71
aI5
aI73
aI80
aI48
aI31
aI9
aI34
aI52
aI70
aI87
aI13
aI45
aI74
aI81
aI1
aI41
aI24
aI72
aI75
aI16
aI30
aI10
aI84
aI23
aI18
aI2
aI62
aI7
aI95
aI42
aI91
aI77
aI92
aI55
aI53
aI47
aI79
aI46
aI21
aI93
aI85
aI49
aI20
aI0
aI19
aI14
aI90
aI78
aI51
aI82
aI94
aI26
aI17
aI89
aI33
aI65
aI11
aI43
aI32
aI29
aI69
aI59
aI68
aI44
aI6
aI15
aI58
aI8
aI88
aI25
aI22
aI37
aI60
aI61
aI57
aI38
aI67
aI50
aI64
aI12
aI76
aI83
aI27
aI35
aI36
aI3
aI56
aI66
as(S'SPK120925'
p64
S'PMv'
p65
tp66
(lp67
I68
aI38
aI60
aI49
aI7
aI12
aI71
aI35
aI80
aI72
aI45
aI30
aI6
aI29
aI95
aI37
aI57
aI75
aI63
aI27
aI50
aI92
aI47
aI18
aI28
aI81
aI66
aI23
aI21
aI90
aI15
aI53
aI59
aI22
aI62
aI32
aI44
aI31
aI0
aI40
aI65
aI74
aI4
aI69
aI43
aI83
aI46
aI10
aI56
aI2
aI84
aI51
aI20
aI1
aI64
aI33
aI54
aI78
aI85
aI3
aI67
aI17
aI94
aI34
aI52
aI19
aI91
aI77
aI42
aI70
aI36
aI26
aI16
aI87
aI9
aI41
aI79
aI5
aI89
aI88
aI61
aI93
aI76
aI24
aI14
aI48
aI73
aI82
aI8
aI13
aI58
aI11
aI25
aI55
as(S'RUS120523'
p68
S'PMd'
p69
tp70
(lp71
I9
aI16
aI11
aI8
aI53
aI31
aI95
aI54
aI29
aI30
aI62
aI22
aI7
aI20
aI89
aI18
aI92
aI14
aI91
aI90
aI88
aI23
aI12
aI27
aI10
aI51
aI57
aI59
aI24
aI21
aI45
aI49
aI60
aI19
aI58
aI55
aI25
aI56
aI94
aI93
aI13
aI61
aI28
aI5
aI17
as(S'RUS120518'
p72
S'PMd'
p73
tp74
(lp75
I27
aI61
aI91
aI19
aI51
aI20
aI60
aI49
aI55
aI14
aI58
aI92
aI53
aI22
aI90
aI18
aI45
aI29
aI11
aI31
aI23
aI94
aI95
aI54
aI25
aI57
aI89
aI12
aI93
aI88
aI56
aI30
aI62
aI10
aI8
aI59
aI28
aI24
as.